target datalayout = "e-m:e-p270:32:32-p271:32:32-p272:64:64-i64:64-i128:128-f80:128-n8:16:32:64-S128"
target triple = "x86_64-pc-linux-gnu"

%struct.AVProbeData = type { ptr, ptr, i32, ptr }

; Function Attrs: alwaysinline nounwind willreturn memory(none) uwtable
define internal zeroext i16 @av_bswap16(i16 noundef zeroext %0) #2 {
  %2 = alloca i16, align 2
  store i16 %0, ptr %2, align 2, !tbaa !56
  %3 = load i16, ptr %2, align 2, !tbaa !56
  %4 = zext i16 %3 to i32
  %5 = ashr i32 %4, 8
  %6 = load i16, ptr %2, align 2, !tbaa !56
  %7 = zext i16 %6 to i32
  %8 = shl i32 %7, 8
  %9 = or i32 %5, %8
  %10 = trunc i32 %9 to i16
  store i16 %10, ptr %2, align 2, !tbaa !56
  %11 = load i16, ptr %2, align 2, !tbaa !56
  ret i16 %11
}

; Function Attrs: nounwind uwtable
define internal i32 @rcwt_probe(ptr noundef %0) #0 {
  %2 = alloca ptr, align 8
  store ptr %0, ptr %2, align 8, !tbaa !4
  %3 = load ptr, ptr %2, align 8, !tbaa !4
  %4 = getelementptr inbounds nuw %struct.AVProbeData, ptr %3, i32 0, i32 2
  %5 = load i32, ptr %4, align 8, !tbaa !9
  %6 = icmp sgt i32 %5, 11
  br i1 %6, label %7, label %33

7:                                                ; preds = %1
  %8 = load ptr, ptr %2, align 8, !tbaa !4
  %9 = getelementptr inbounds nuw %struct.AVProbeData, ptr %8, i32 0, i32 1
  %10 = load ptr, ptr %9, align 8, !tbaa !13
  %11 = load i16, ptr %10, align 1, !tbaa !14
  %12 = call zeroext i16 @av_bswap16(i16 noundef zeroext %11) #5
  %13 = zext i16 %12 to i32
  %14 = icmp eq i32 %13, 52428
  br i1 %14, label %15, label %33

15:                                               ; preds = %7
  %16 = load ptr, ptr %2, align 8, !tbaa !4
  %17 = getelementptr inbounds nuw %struct.AVProbeData, ptr %16, i32 0, i32 1
  %18 = load ptr, ptr %17, align 8, !tbaa !13
  %19 = getelementptr inbounds i8, ptr %18, i64 2
  %20 = getelementptr inbounds i8, ptr %19, i64 0
  %21 = load i8, ptr %20, align 1, !tbaa !14
  %22 = zext i8 %21 to i32
  %23 = icmp eq i32 %22, 237
  br i1 %23, label %24, label %33

24:                                               ; preds = %15
  %25 = load ptr, ptr %2, align 8, !tbaa !4
  %26 = getelementptr inbounds nuw %struct.AVProbeData, ptr %25, i32 0, i32 1
  %27 = load ptr, ptr %26, align 8, !tbaa !13
  %28 = getelementptr inbounds i8, ptr %27, i64 6
  %29 = load i16, ptr %28, align 1, !tbaa !14
  %30 = call zeroext i16 @av_bswap16(i16 noundef zeroext %29) #5
  %31 = zext i16 %30 to i32
  %32 = icmp eq i32 %31, 1
  br label %33

33:                                               ; preds = %24, %15, %7, %1
  %34 = phi i1 [ false, %15 ], [ false, %7 ], [ false, %1 ], [ %32, %24 ]
  %35 = select i1 %34, i32 50, i32 0
  ret i32 %35
}