; Function Attrs: mustprogress nofree norecurse nosync nounwind willreturn memory(read, inaccessiblemem: none) uwtable
define internal range(i32 0, 51) i32 @rcwt_probe(ptr noundef readonly captures(none) %0) #0 {
  %2 = getelementptr inbounds nuw i8, ptr %0, i64 16
  %3 = load i32, ptr %2, align 8, !tbaa !4
  %4 = icmp sgt i32 %3, 11
  br i1 %4, label %5, label %19

5:                                                ; preds = %1
  %6 = getelementptr inbounds nuw i8, ptr %0, i64 8
  %7 = load ptr, ptr %6, align 8, !tbaa !11
  %8 = load i16, ptr %7, align 1, !tbaa !12
  %9 = icmp eq i16 %8, -13108
  br i1 %9, label %10, label %19

10:                                               ; preds = %5
  %11 = getelementptr inbounds nuw i8, ptr %7, i64 2
  %12 = load i8, ptr %11, align 1, !tbaa !12
  %13 = icmp eq i8 %12, -19
  br i1 %13, label %14, label %19

14:                                               ; preds = %10
  %15 = getelementptr inbounds nuw i8, ptr %7, i64 6
  %16 = load i16, ptr %15, align 1, !tbaa !12
  %17 = icmp eq i16 %16, 256
  %18 = select i1 %17, i32 50, i32 0
  br label %19

19:                                               ; preds = %14, %10, %5, %1
  %20 = phi i32 [ 0, %10 ], [ 0, %5 ], [ 0, %1 ], [ %18, %14 ]
  ret i32 %20
}